; Function Attrs: mustprogress nofree norecurse nosync nounwind willreturn memory(argmem: read) uwtable
define range(i32 0, 2) i32 @EVP_CIPHER_can_pipeline(ptr noundef readonly captures(none) %0, i32 noundef %1) local_unnamed_addr #9 {
  %.not = icmp eq i32 %1, 0
  br i1 %.not, label %.critedge, label %3

3:                                                ; preds = %2
  %4 = getelementptr inbounds nuw i8, ptr %0, i64 184
  %5 = load ptr, ptr %4, align 8, !tbaa !46
  %.not6 = icmp eq ptr %5, null
  br i1 %.not6, label %14, label %8

.critedge:                                        ; preds = %2
  %6 = getelementptr inbounds nuw i8, ptr %0, i64 192
  %7 = load ptr, ptr %6, align 8, !tbaa !47
  %.not7 = icmp eq ptr %7, null
  br i1 %.not7, label %14, label %8

8:                                                ; preds = %.critedge, %3
  %9 = getelementptr inbounds nuw i8, ptr %0, i64 200
  %10 = load ptr, ptr %9, align 8, !tbaa !48
  %.not8 = icmp eq ptr %10, null
  br i1 %.not8, label %14, label %11

11:                                               ; preds = %8
  %12 = getelementptr inbounds nuw i8, ptr %0, i64 208
  %13 = load ptr, ptr %12, align 8, !tbaa !49
  %.not9 = icmp eq ptr %13, null
  br i1 %.not9, label %14, label %15

14:                                               ; preds = %3, %11, %8, %.critedge
  br label %15

15:                                               ; preds = %11, %14
  %.0 = phi i32 [ 0, %14 ], [ 1, %11 ]
  ret i32 %.0
}